target datalayout = "e-m:e-p270:32:32-p271:32:32-p272:64:64-i64:64-i128:128-f80:128-n8:16:32:64-S128"
target triple = "x86_64-pc-linux-gnu"

%"struct.llvm::RetainedKnowledge" = type { i32, i64, ptr }
%"class.llvm::ArrayRef" = type { ptr, i64 }
%"class.llvm::function_ref" = type { ptr, i64 }
%class.anon.12 = type { ptr, ptr }

; Function Attrs: mustprogress nounwind uwtable
define internal void @"_ZN4llvm12function_refIFbNS_17RetainedKnowledgeEPNS_11InstructionEPKNS_8CallBase12BundleOpInfoEEEC2IZNS_26getKnowledgeValidInContextEPKNS_5ValueENS_8ArrayRefINS_9Attribute8AttrKindEEEPKS2_PKNS_13DominatorTreeEPNS_15AssumptionCacheEE3$_0EEOT_PNSt9enable_ifIXntsr3std7is_sameINS_12remove_cvrefISQ_E4typeES9_EE5valueEvE4typeEPNSS_IXooL_ZNSt17integral_constantIbLb0EE5valueEEsr3std14is_convertibleIDTclclsr3stdE7declvalISQ_EEclL_ZSt7declvalIS1_EDTcl9__declvalISQ_ELi0EEEvEEclL_ZS11_IS3_ES12_vEEclL_ZS11_IS7_ES12_vEEEEbEE5valueEvE4typeE"(ptr noundef nonnull align 8 dereferenceable(16) %0, ptr noundef nonnull align 8 dereferenceable(16) %1, ptr noundef %2, ptr noundef %3) unnamed_addr #1 align 2 {
  %5 = alloca ptr, align 8
  %6 = alloca ptr, align 8
  %7 = alloca ptr, align 8
  %8 = alloca ptr, align 8
  store ptr %0, ptr %5, align 8
  store ptr %1, ptr %6, align 8
  store ptr %2, ptr %7, align 8
  store ptr %3, ptr %8, align 8
  %9 = load ptr, ptr %5, align 8
  %10 = getelementptr inbounds nuw %"class.llvm::function_ref", ptr %9, i32 0, i32 0
  store ptr @"_ZN4llvm12function_refIFbNS_17RetainedKnowledgeEPNS_11InstructionEPKNS_8CallBase12BundleOpInfoEEE11callback_fnIZNS_26getKnowledgeValidInContextEPKNS_5ValueENS_8ArrayRefINS_9Attribute8AttrKindEEEPKS2_PKNS_13DominatorTreeEPNS_15AssumptionCacheEE3$_0EEblS1_S3_S7_", ptr %10, align 8
  %11 = getelementptr inbounds nuw %"class.llvm::function_ref", ptr %9, i32 0, i32 1
  %12 = load ptr, ptr %6, align 8
  %13 = ptrtoint ptr %12 to i64
  store i64 %13, ptr %11, align 8
  ret void
}

; Function Attrs: mustprogress nounwind uwtable
define dso_local void @_ZN4llvm26getKnowledgeValidInContextEPKNS_5ValueENS_8ArrayRefINS_9Attribute8AttrKindEEEPKNS_11InstructionEPKNS_13DominatorTreeEPNS_15AssumptionCacheE(ptr dead_on_unwind noalias writable sret(%"struct.llvm::RetainedKnowledge") align 8 %0, ptr noundef %1, ptr %2, i64 %3, ptr noundef %4, ptr noundef %5, ptr noundef %6) #1 {
  %8 = alloca %"class.llvm::ArrayRef", align 8
  %9 = alloca ptr, align 8
  %10 = alloca ptr, align 8
  %11 = alloca ptr, align 8
  %12 = alloca ptr, align 8
  %13 = alloca %"class.llvm::ArrayRef", align 8
  %14 = alloca %"class.llvm::function_ref", align 8
  %15 = alloca %class.anon.12, align 8
  %16 = getelementptr inbounds nuw { ptr, i64 }, ptr %8, i32 0, i32 0
  store ptr %2, ptr %16, align 8
  %17 = getelementptr inbounds nuw { ptr, i64 }, ptr %8, i32 0, i32 1
  store i64 %3, ptr %17, align 8
  store ptr %1, ptr %9, align 8
  store ptr %4, ptr %10, align 8
  store ptr %5, ptr %11, align 8
  store ptr %6, ptr %12, align 8
  %18 = load ptr, ptr %9, align 8
  call void @llvm.memcpy.p0.p0.i64(ptr align 8 %13, ptr align 8 %8, i64 16, i1 false)
  %19 = load ptr, ptr %12, align 8
  %20 = getelementptr inbounds nuw %class.anon.12, ptr %15, i32 0, i32 0
  store ptr %10, ptr %20, align 8
  %21 = getelementptr inbounds nuw %class.anon.12, ptr %15, i32 0, i32 1
  store ptr %11, ptr %21, align 8
  call void @"_ZN4llvm12function_refIFbNS_17RetainedKnowledgeEPNS_11InstructionEPKNS_8CallBase12BundleOpInfoEEEC2IZNS_26getKnowledgeValidInContextEPKNS_5ValueENS_8ArrayRefINS_9Attribute8AttrKindEEEPKS2_PKNS_13DominatorTreeEPNS_15AssumptionCacheEE3$_0EEOT_PNSt9enable_ifIXntsr3std7is_sameINS_12remove_cvrefISQ_E4typeES9_EE5valueEvE4typeEPNSS_IXooL_ZNSt17integral_constantIbLb0EE5valueEEsr3std14is_convertibleIDTclclsr3stdE7declvalISQ_EEclL_ZSt7declvalIS1_EDTcl9__declvalISQ_ELi0EEEvEEclL_ZS11_IS3_ES12_vEEclL_ZS11_IS7_ES12_vEEEEbEE5valueEvE4typeE"(ptr noundef nonnull align 8 dereferenceable(16) %14, ptr noundef nonnull align 8 dereferenceable(16) %15, ptr noundef null, ptr noundef null)
  %22 = getelementptr inbounds nuw { ptr, i64 }, ptr %13, i32 0, i32 0
  %23 = load ptr, ptr %22, align 8
  %24 = getelementptr inbounds nuw { ptr, i64 }, ptr %13, i32 0, i32 1
  %25 = load i64, ptr %24, align 8
  call void @_ZN4llvm20getKnowledgeForValueEPKNS_5ValueENS_8ArrayRefINS_9Attribute8AttrKindEEEPNS_15AssumptionCacheENS_12function_refIFbNS_17RetainedKnowledgeEPNS_11InstructionEPKNS_8CallBase12BundleOpInfoEEEE(ptr dead_on_unwind writable sret(%"struct.llvm::RetainedKnowledge") align 8 %0, ptr noundef %18, ptr %23, i64 %25, ptr noundef %19, ptr noundef byval(%"class.llvm::function_ref") align 8 %14)
  ret void
}