; Function Attrs: mustprogress nounwind uwtable
define dso_local void @_ZN4llvm26getKnowledgeValidInContextEPKNS_5ValueENS_8ArrayRefINS_9Attribute8AttrKindEEEPKNS_11InstructionEPKNS_13DominatorTreeEPNS_15AssumptionCacheE(ptr dead_on_unwind noalias nocapture writable sret(%"struct.llvm::RetainedKnowledge") align 8 %0, ptr noundef %1, ptr %2, i64 %3, ptr noundef %4, ptr noundef %5, ptr noundef %6) local_unnamed_addr #0 {
  %8 = alloca ptr, align 8
  %9 = alloca ptr, align 8
  %10 = alloca %"class.llvm::function_ref", align 8
  %11 = alloca %class.anon.12, align 8
  store ptr %4, ptr %8, align 8
  store ptr %5, ptr %9, align 8
  store ptr %8, ptr %11, align 8
  %12 = getelementptr inbounds nuw i8, ptr %11, i64 8
  store ptr %9, ptr %12, align 8
  store ptr @"_ZN4llvm12function_refIFbNS_17RetainedKnowledgeEPNS_11InstructionEPKNS_8CallBase12BundleOpInfoEEE11callback_fnIZNS_26getKnowledgeValidInContextEPKNS_5ValueENS_8ArrayRefINS_9Attribute8AttrKindEEEPKS2_PKNS_13DominatorTreeEPNS_15AssumptionCacheEE3$_0EEblS1_S3_S7_", ptr %10, align 8
  %13 = getelementptr inbounds nuw i8, ptr %10, i64 8
  %14 = ptrtoint ptr %11 to i64
  store i64 %14, ptr %13, align 8
  call void @_ZN4llvm20getKnowledgeForValueEPKNS_5ValueENS_8ArrayRefINS_9Attribute8AttrKindEEEPNS_15AssumptionCacheENS_12function_refIFbNS_17RetainedKnowledgeEPNS_11InstructionEPKNS_8CallBase12BundleOpInfoEEEE(ptr dead_on_unwind writable sret(%"struct.llvm::RetainedKnowledge") align 8 %0, ptr noundef %1, ptr %2, i64 %3, ptr noundef %6, ptr noundef nonnull byval(%"class.llvm::function_ref") align 8 %10)
  ret void
}